target datalayout = "e-m:e-p270:32:32-p271:32:32-p272:64:64-i64:64-i128:128-f80:128-n8:16:32:64-S128"
target triple = "x86_64-pc-linux-gnu"

%struct.hb_face_t = type { %struct.hb_object_header_t, ptr, ptr, ptr, i32, %struct.hb_atomic_int_t, %struct.hb_atomic_int_t, %struct.hb_shaper_object_dataset_t, %struct.hb_ot_face_t, %struct.hb_atomic_ptr_t.138 }
%struct.hb_object_header_t = type { %struct.hb_reference_count_t, %struct.hb_atomic_int_t, %struct.hb_atomic_ptr_t }
%struct.hb_reference_count_t = type { %struct.hb_atomic_int_t }
%struct.hb_atomic_ptr_t = type { ptr }
%struct.hb_atomic_int_t = type { i32 }
%struct.hb_shaper_object_dataset_t = type { ptr, %struct.hb_shaper_lazy_loader_t, %struct.hb_shaper_lazy_loader_t.1 }
%struct.hb_shaper_lazy_loader_t = type { %struct.hb_lazy_loader_t }
%struct.hb_lazy_loader_t = type { %struct.hb_atomic_ptr_t.0 }
%struct.hb_atomic_ptr_t.0 = type { ptr }
%struct.hb_shaper_lazy_loader_t.1 = type { %struct.hb_lazy_loader_t.2 }
%struct.hb_lazy_loader_t.2 = type { %struct.hb_atomic_ptr_t.4 }
%struct.hb_atomic_ptr_t.4 = type { ptr }
%struct.hb_ot_face_t = type { ptr, %struct.hb_table_lazy_loader_t, %struct.hb_table_lazy_loader_t.7, %struct.hb_face_lazy_loader_t, %struct.hb_table_lazy_loader_t.12, %struct.hb_face_lazy_loader_t.15, %struct.hb_table_lazy_loader_t.19, %struct.hb_face_lazy_loader_t.22, %struct.hb_face_lazy_loader_t.26, %struct.hb_table_lazy_loader_t.30, %struct.hb_face_lazy_loader_t.33, %struct.hb_table_lazy_loader_t.37, %struct.hb_face_lazy_loader_t.40, %struct.hb_table_lazy_loader_t.44, %struct.hb_table_lazy_loader_t.47, %struct.hb_face_lazy_loader_t.50, %struct.hb_face_lazy_loader_t.54, %struct.hb_face_lazy_loader_t.58, %struct.hb_table_lazy_loader_t.62, %struct.hb_table_lazy_loader_t.65, %struct.hb_table_lazy_loader_t.68, %struct.hb_face_lazy_loader_t.71, %struct.hb_table_lazy_loader_t.75, %struct.hb_table_lazy_loader_t.78, %struct.hb_face_lazy_loader_t.81, %struct.hb_face_lazy_loader_t.85, %struct.hb_face_lazy_loader_t.89, %struct.hb_table_lazy_loader_t.93, %struct.hb_table_lazy_loader_t.96, %struct.hb_table_lazy_loader_t.99, %struct.hb_table_lazy_loader_t.102, %struct.hb_table_lazy_loader_t.105, %struct.hb_table_lazy_loader_t.108, %struct.hb_table_lazy_loader_t.111, %struct.hb_table_lazy_loader_t.114, %struct.hb_table_lazy_loader_t.117, %struct.hb_table_lazy_loader_t.120, %struct.hb_face_lazy_loader_t.123, %struct.hb_face_lazy_loader_t.127, %struct.hb_face_lazy_loader_t.131, %struct.hb_table_lazy_loader_t.135 }
%struct.hb_table_lazy_loader_t = type { %struct.hb_lazy_loader_t.5 }
%struct.hb_lazy_loader_t.5 = type { %struct.hb_atomic_ptr_t.6 }
%struct.hb_atomic_ptr_t.6 = type { ptr }
%struct.hb_table_lazy_loader_t.7 = type { %struct.hb_lazy_loader_t.8 }
%struct.hb_lazy_loader_t.8 = type { %struct.hb_atomic_ptr_t.6 }
%struct.hb_face_lazy_loader_t = type { %struct.hb_lazy_loader_t.9 }
%struct.hb_lazy_loader_t.9 = type { %struct.hb_atomic_ptr_t.11 }
%struct.hb_atomic_ptr_t.11 = type { ptr }
%struct.hb_table_lazy_loader_t.12 = type { %struct.hb_lazy_loader_t.13 }
%struct.hb_lazy_loader_t.13 = type { %struct.hb_atomic_ptr_t.6 }
%struct.hb_face_lazy_loader_t.15 = type { %struct.hb_lazy_loader_t.16 }
%struct.hb_lazy_loader_t.16 = type { %struct.hb_atomic_ptr_t.18 }
%struct.hb_atomic_ptr_t.18 = type { ptr }
%struct.hb_table_lazy_loader_t.19 = type { %struct.hb_lazy_loader_t.20 }
%struct.hb_lazy_loader_t.20 = type { %struct.hb_atomic_ptr_t.6 }
%struct.hb_face_lazy_loader_t.22 = type { %struct.hb_lazy_loader_t.23 }
%struct.hb_lazy_loader_t.23 = type { %struct.hb_atomic_ptr_t.25 }
%struct.hb_atomic_ptr_t.25 = type { ptr }
%struct.hb_face_lazy_loader_t.26 = type { %struct.hb_lazy_loader_t.27 }
%struct.hb_lazy_loader_t.27 = type { %struct.hb_atomic_ptr_t.29 }
%struct.hb_atomic_ptr_t.29 = type { ptr }
%struct.hb_table_lazy_loader_t.30 = type { %struct.hb_lazy_loader_t.31 }
%struct.hb_lazy_loader_t.31 = type { %struct.hb_atomic_ptr_t.6 }
%struct.hb_face_lazy_loader_t.33 = type { %struct.hb_lazy_loader_t.34 }
%struct.hb_lazy_loader_t.34 = type { %struct.hb_atomic_ptr_t.36 }
%struct.hb_atomic_ptr_t.36 = type { ptr }
%struct.hb_table_lazy_loader_t.37 = type { %struct.hb_lazy_loader_t.38 }
%struct.hb_lazy_loader_t.38 = type { %struct.hb_atomic_ptr_t.6 }
%struct.hb_face_lazy_loader_t.40 = type { %struct.hb_lazy_loader_t.41 }
%struct.hb_lazy_loader_t.41 = type { %struct.hb_atomic_ptr_t.43 }
%struct.hb_atomic_ptr_t.43 = type { ptr }
%struct.hb_table_lazy_loader_t.44 = type { %struct.hb_lazy_loader_t.45 }
%struct.hb_lazy_loader_t.45 = type { %struct.hb_atomic_ptr_t.6 }
%struct.hb_table_lazy_loader_t.47 = type { %struct.hb_lazy_loader_t.48 }
%struct.hb_lazy_loader_t.48 = type { %struct.hb_atomic_ptr_t.6 }
%struct.hb_face_lazy_loader_t.50 = type { %struct.hb_lazy_loader_t.51 }
%struct.hb_lazy_loader_t.51 = type { %struct.hb_atomic_ptr_t.53 }
%struct.hb_atomic_ptr_t.53 = type { ptr }
%struct.hb_face_lazy_loader_t.54 = type { %struct.hb_lazy_loader_t.55 }
%struct.hb_lazy_loader_t.55 = type { %struct.hb_atomic_ptr_t.57 }
%struct.hb_atomic_ptr_t.57 = type { ptr }
%struct.hb_face_lazy_loader_t.58 = type { %struct.hb_lazy_loader_t.59 }
%struct.hb_lazy_loader_t.59 = type { %struct.hb_atomic_ptr_t.61 }
%struct.hb_atomic_ptr_t.61 = type { ptr }
%struct.hb_table_lazy_loader_t.62 = type { %struct.hb_lazy_loader_t.63 }
%struct.hb_lazy_loader_t.63 = type { %struct.hb_atomic_ptr_t.6 }
%struct.hb_table_lazy_loader_t.65 = type { %struct.hb_lazy_loader_t.66 }
%struct.hb_lazy_loader_t.66 = type { %struct.hb_atomic_ptr_t.6 }
%struct.hb_table_lazy_loader_t.68 = type { %struct.hb_lazy_loader_t.69 }
%struct.hb_lazy_loader_t.69 = type { %struct.hb_atomic_ptr_t.6 }
%struct.hb_face_lazy_loader_t.71 = type { %struct.hb_lazy_loader_t.72 }
%struct.hb_lazy_loader_t.72 = type { %struct.hb_atomic_ptr_t.74 }
%struct.hb_atomic_ptr_t.74 = type { ptr }
%struct.hb_table_lazy_loader_t.75 = type { %struct.hb_lazy_loader_t.76 }
%struct.hb_lazy_loader_t.76 = type { %struct.hb_atomic_ptr_t.6 }
%struct.hb_table_lazy_loader_t.78 = type { %struct.hb_lazy_loader_t.79 }
%struct.hb_lazy_loader_t.79 = type { %struct.hb_atomic_ptr_t.6 }
%struct.hb_face_lazy_loader_t.81 = type { %struct.hb_lazy_loader_t.82 }
%struct.hb_lazy_loader_t.82 = type { %struct.hb_atomic_ptr_t.84 }
%struct.hb_atomic_ptr_t.84 = type { ptr }
%struct.hb_face_lazy_loader_t.85 = type { %struct.hb_lazy_loader_t.86 }
%struct.hb_lazy_loader_t.86 = type { %struct.hb_atomic_ptr_t.88 }
%struct.hb_atomic_ptr_t.88 = type { ptr }
%struct.hb_face_lazy_loader_t.89 = type { %struct.hb_lazy_loader_t.90 }
%struct.hb_lazy_loader_t.90 = type { %struct.hb_atomic_ptr_t.92 }
%struct.hb_atomic_ptr_t.92 = type { ptr }
%struct.hb_table_lazy_loader_t.93 = type { %struct.hb_lazy_loader_t.94 }
%struct.hb_lazy_loader_t.94 = type { %struct.hb_atomic_ptr_t.6 }
%struct.hb_table_lazy_loader_t.96 = type { %struct.hb_lazy_loader_t.97 }
%struct.hb_lazy_loader_t.97 = type { %struct.hb_atomic_ptr_t.6 }
%struct.hb_table_lazy_loader_t.99 = type { %struct.hb_lazy_loader_t.100 }
%struct.hb_lazy_loader_t.100 = type { %struct.hb_atomic_ptr_t.6 }
%struct.hb_table_lazy_loader_t.102 = type { %struct.hb_lazy_loader_t.103 }
%struct.hb_lazy_loader_t.103 = type { %struct.hb_atomic_ptr_t.6 }
%struct.hb_table_lazy_loader_t.105 = type { %struct.hb_lazy_loader_t.106 }
%struct.hb_lazy_loader_t.106 = type { %struct.hb_atomic_ptr_t.6 }
%struct.hb_table_lazy_loader_t.108 = type { %struct.hb_lazy_loader_t.109 }
%struct.hb_lazy_loader_t.109 = type { %struct.hb_atomic_ptr_t.6 }
%struct.hb_table_lazy_loader_t.111 = type { %struct.hb_lazy_loader_t.112 }
%struct.hb_lazy_loader_t.112 = type { %struct.hb_atomic_ptr_t.6 }
%struct.hb_table_lazy_loader_t.114 = type { %struct.hb_lazy_loader_t.115 }
%struct.hb_lazy_loader_t.115 = type { %struct.hb_atomic_ptr_t.6 }
%struct.hb_table_lazy_loader_t.117 = type { %struct.hb_lazy_loader_t.118 }
%struct.hb_lazy_loader_t.118 = type { %struct.hb_atomic_ptr_t.6 }
%struct.hb_table_lazy_loader_t.120 = type { %struct.hb_lazy_loader_t.121 }
%struct.hb_lazy_loader_t.121 = type { %struct.hb_atomic_ptr_t.6 }
%struct.hb_face_lazy_loader_t.123 = type { %struct.hb_lazy_loader_t.124 }
%struct.hb_lazy_loader_t.124 = type { %struct.hb_atomic_ptr_t.126 }
%struct.hb_atomic_ptr_t.126 = type { ptr }
%struct.hb_face_lazy_loader_t.127 = type { %struct.hb_lazy_loader_t.128 }
%struct.hb_lazy_loader_t.128 = type { %struct.hb_atomic_ptr_t.130 }
%struct.hb_atomic_ptr_t.130 = type { ptr }
%struct.hb_face_lazy_loader_t.131 = type { %struct.hb_lazy_loader_t.132 }
%struct.hb_lazy_loader_t.132 = type { %struct.hb_atomic_ptr_t.134 }
%struct.hb_atomic_ptr_t.134 = type { ptr }
%struct.hb_table_lazy_loader_t.135 = type { %struct.hb_lazy_loader_t.136 }
%struct.hb_lazy_loader_t.136 = type { %struct.hb_atomic_ptr_t.6 }
%struct.hb_atomic_ptr_t.138 = type { ptr }
%"struct.OT::name::accelerator_t" = type { ptr, i32, %struct.hb_blob_ptr_t, %struct.hb_vector_t }
%struct.hb_blob_ptr_t = type { %struct.hb_nonnull_ptr_t }
%struct.hb_nonnull_ptr_t = type { ptr }
%struct.hb_vector_t = type { i32, i32, ptr }

; Function Attrs: mustprogress nounwind uwtable
define linkonce_odr hidden noundef ptr @_ZN16hb_lazy_loader_tIN2OT18name_accelerator_tE21hb_face_lazy_loader_tIS1_Lj8EE9hb_face_tLj8ES1_E7convertEPS1_(ptr noundef %0) #1 comdat align 2 {
  %2 = alloca ptr, align 8
  store ptr %0, ptr %2, align 8
  %3 = load ptr, ptr %2, align 8
  ret ptr %3
}

; Function Attrs: mustprogress uwtable
define linkonce_odr hidden noundef ptr @_ZNK16hb_lazy_loader_tIN2OT18name_accelerator_tE21hb_face_lazy_loader_tIS1_Lj8EE9hb_face_tLj8ES1_E3getEv(ptr noundef nonnull align 8 dereferenceable(8) %0) #0 comdat align 2 {
  %2 = alloca ptr, align 8
  store ptr %0, ptr %2, align 8
  %3 = load ptr, ptr %2, align 8
  %4 = call noundef ptr @_ZNK16hb_lazy_loader_tIN2OT18name_accelerator_tE21hb_face_lazy_loader_tIS1_Lj8EE9hb_face_tLj8ES1_E10get_storedEv(ptr noundef nonnull align 8 dereferenceable(8) %3)
  %5 = call noundef ptr @_ZN16hb_lazy_loader_tIN2OT18name_accelerator_tE21hb_face_lazy_loader_tIS1_Lj8EE9hb_face_tLj8ES1_E7convertEPS1_(ptr noundef %4)
  ret ptr %5
}

; Function Attrs: mustprogress nounwind uwtable
define linkonce_odr hidden noundef ptr @_ZNK11hb_vector_tI18hb_ot_name_entry_tLb0EEcvPKT_IS0_EEv(ptr noundef nonnull align 8 dereferenceable(16) %0) #1 comdat align 2 {
  %2 = alloca ptr, align 8
  store ptr %0, ptr %2, align 8
  %3 = load ptr, ptr %2, align 8
  %4 = getelementptr inbounds %struct.hb_vector_t, ptr %3, i32 0, i32 2
  %5 = load ptr, ptr %4, align 8
  ret ptr %5
}

; Function Attrs: mustprogress uwtable
define linkonce_odr hidden noundef nonnull align 8 dereferenceable(40) ptr @_ZNK16hb_lazy_loader_tIN2OT18name_accelerator_tE21hb_face_lazy_loader_tIS1_Lj8EE9hb_face_tLj8ES1_EdeIS1_TnPN12hb_enable_ifIXntsr10hb_is_sameIT_vEE5valueEvE4typeELPv0EEERKS8_v(ptr noundef nonnull align 8 dereferenceable(8) %0) #0 comdat align 2 {
  %2 = alloca ptr, align 8
  store ptr %0, ptr %2, align 8
  %3 = load ptr, ptr %2, align 8
  %4 = call noundef ptr @_ZNK16hb_lazy_loader_tIN2OT18name_accelerator_tE21hb_face_lazy_loader_tIS1_Lj8EE9hb_face_tLj8ES1_E3getEv(ptr noundef nonnull align 8 dereferenceable(8) %3)
  ret ptr %4
}

; Function Attrs: mustprogress uwtable
define hidden ptr @hb_ot_name_list_names(ptr noundef %0, ptr noundef %1) #0 {
  %3 = alloca ptr, align 8
  %4 = alloca ptr, align 8
  %5 = alloca ptr, align 8
  store ptr %0, ptr %3, align 8
  store ptr %1, ptr %4, align 8
  %6 = load ptr, ptr %3, align 8
  %7 = getelementptr inbounds %struct.hb_face_t, ptr %6, i32 0, i32 8
  %8 = getelementptr inbounds %struct.hb_ot_face_t, ptr %7, i32 0, i32 8
  %9 = call noundef nonnull align 8 dereferenceable(40) ptr @_ZNK16hb_lazy_loader_tIN2OT18name_accelerator_tE21hb_face_lazy_loader_tIS1_Lj8EE9hb_face_tLj8ES1_EdeIS1_TnPN12hb_enable_ifIXntsr10hb_is_sameIT_vEE5valueEvE4typeELPv0EEERKS8_v(ptr noundef nonnull align 8 dereferenceable(8) %8)
  store ptr %9, ptr %5, align 8
  %10 = load ptr, ptr %4, align 8
  %11 = icmp ne ptr %10, null
  br i1 %11, label %12, label %18

12:                                               ; preds = %2
  %13 = load ptr, ptr %5, align 8
  %14 = getelementptr inbounds %"struct.OT::name::accelerator_t", ptr %13, i32 0, i32 3
  %15 = getelementptr inbounds %struct.hb_vector_t, ptr %14, i32 0, i32 1
  %16 = load i32, ptr %15, align 4
  %17 = load ptr, ptr %4, align 8
  store i32 %16, ptr %17, align 4
  br label %18

18:                                               ; preds = %12, %2
  %19 = load ptr, ptr %5, align 8
  %20 = getelementptr inbounds %"struct.OT::name::accelerator_t", ptr %19, i32 0, i32 3
  %21 = call noundef ptr @_ZNK11hb_vector_tI18hb_ot_name_entry_tLb0EEcvPKT_IS0_EEv(ptr noundef nonnull align 8 dereferenceable(16) %20)
  ret ptr %21
}