; Function Attrs: mustprogress uwtable
define hidden ptr @hb_ot_name_list_names(ptr noundef %0, ptr noundef writeonly %1) local_unnamed_addr #0 {
  %3 = getelementptr inbounds i8, ptr %0, i64 144
  %4 = tail call noundef nonnull align 8 dereferenceable(40) ptr @_ZNK16hb_lazy_loader_tIN2OT18name_accelerator_tE21hb_face_lazy_loader_tIS1_Lj8EE9hb_face_tLj8ES1_E10get_storedEv(ptr noundef nonnull align 8 dereferenceable(8) %3)
  %.not = icmp eq ptr %1, null
  br i1 %.not, label %8, label %5

5:                                                ; preds = %2
  %6 = getelementptr inbounds i8, ptr %4, i64 28
  %7 = load i32, ptr %6, align 4
  store i32 %7, ptr %1, align 4
  br label %8

8:                                                ; preds = %5, %2
  %9 = getelementptr inbounds i8, ptr %4, i64 32
  %10 = load ptr, ptr %9, align 8
  ret ptr %10
}